target datalayout = "e-m:e-p270:32:32-p271:32:32-p272:64:64-i64:64-i128:128-f80:128-n8:16:32:64-S128"
target triple = "x86_64-pc-linux-gnu"

%struct.sharedObjectsStruct = type { ptr, ptr, ptr, ptr, ptr, ptr, ptr, ptr, [4 x ptr], [4 x ptr], [4 x ptr], [4 x ptr], ptr, ptr, ptr, ptr, ptr, ptr, ptr, ptr, ptr, ptr, ptr, ptr, ptr, ptr, ptr, ptr, ptr, ptr, ptr, ptr, ptr, ptr, ptr, ptr, ptr, ptr, ptr, ptr, ptr, ptr, ptr, ptr, ptr, ptr, ptr, ptr, ptr, ptr, ptr, ptr, ptr, ptr, ptr, ptr, ptr, ptr, ptr, ptr, ptr, ptr, ptr, ptr, ptr, ptr, ptr, ptr, ptr, ptr, ptr, ptr, ptr, ptr, ptr, ptr, ptr, ptr, ptr, ptr, ptr, ptr, ptr, ptr, ptr, ptr, ptr, ptr, [10 x ptr], [10000 x ptr], [32 x ptr], [32 x ptr], [32 x ptr], [32 x ptr], ptr, ptr }
%struct.redisObject = type { i32, i32, ptr }
%struct.client = type { i64, i64, ptr, i8, i8, i8, i8, i32, ptr, ptr, ptr, ptr, ptr, i64, i64, i32, ptr, i32, i32, ptr, i64, ptr, ptr, ptr, ptr, ptr, i32, i32, i64, ptr, i64, ptr, i64, i64, i64, i32, ptr, i64, i64, i32, i32, i32, i32, i64, i64, ptr, i64, i64, i64, i64, i64, i64, i64, i64, [41 x i8], i32, ptr, i32, i32, i64, %struct.multiState, %struct.blockingState, i64, ptr, ptr, ptr, ptr, ptr, ptr, ptr, ptr, ptr, ptr, ptr, ptr, ptr, ptr, i64, ptr, i64, i32, ptr, ptr, ptr, i64, %struct.listNode, i64, i64, i32, i64, ptr }
%struct.multiState = type { ptr, i32, i32, i32, i64, i32 }
%struct.blockingState = type { i32, i64, i32, ptr, i32, i32, i64, ptr, ptr, i64 }
%struct.listNode = type { ptr, ptr, ptr }

@.str.1 = private unnamed_addr constant [9 x i8] c"t_zset.c\00", align 1
@shared = external global %struct.sharedObjectsStruct, align 8
@.str.64 = private unnamed_addr constant [10 x i8] c"withscore\00", align 1
@.str.65 = private unnamed_addr constant [22 x i8] c"sdsEncodedObject(ele)\00", align 1

; Function Attrs: nounwind uwtable
define dso_local void @zrankGenericCommand(ptr noundef %0, i32 noundef %1) #0 {
  %3 = alloca ptr, align 8
  %4 = alloca i32, align 4
  %5 = alloca ptr, align 8
  %6 = alloca ptr, align 8
  %7 = alloca ptr, align 8
  %8 = alloca ptr, align 8
  %9 = alloca i64, align 8
  %10 = alloca i32, align 4
  %11 = alloca double, align 8
  %12 = alloca i32, align 4
  store ptr %0, ptr %3, align 8, !tbaa !150
  store i32 %1, ptr %4, align 4, !tbaa !5
  call void @llvm.lifetime.start.p0(i64 8, ptr %5) #12
  %13 = load ptr, ptr %3, align 8, !tbaa !150
  %14 = getelementptr inbounds nuw %struct.client, ptr %13, i32 0, i32 16
  %15 = load ptr, ptr %14, align 8, !tbaa !151
  %16 = getelementptr inbounds ptr, ptr %15, i64 1
  %17 = load ptr, ptr %16, align 8, !tbaa !78
  store ptr %17, ptr %5, align 8, !tbaa !78
  call void @llvm.lifetime.start.p0(i64 8, ptr %6) #12
  %18 = load ptr, ptr %3, align 8, !tbaa !150
  %19 = getelementptr inbounds nuw %struct.client, ptr %18, i32 0, i32 16
  %20 = load ptr, ptr %19, align 8, !tbaa !151
  %21 = getelementptr inbounds ptr, ptr %20, i64 2
  %22 = load ptr, ptr %21, align 8, !tbaa !78
  store ptr %22, ptr %6, align 8, !tbaa !78
  call void @llvm.lifetime.start.p0(i64 8, ptr %7) #12
  call void @llvm.lifetime.start.p0(i64 8, ptr %8) #12
  call void @llvm.lifetime.start.p0(i64 8, ptr %9) #12
  call void @llvm.lifetime.start.p0(i64 4, ptr %10) #12
  store i32 0, ptr %10, align 4, !tbaa !5
  call void @llvm.lifetime.start.p0(i64 8, ptr %11) #12
  %23 = load ptr, ptr %3, align 8, !tbaa !150
  %24 = getelementptr inbounds nuw %struct.client, ptr %23, i32 0, i32 15
  %25 = load i32, ptr %24, align 8, !tbaa !160
  %26 = icmp sgt i32 %25, 4
  br i1 %26, label %27, label %29

27:                                               ; preds = %2
  %28 = load ptr, ptr %3, align 8, !tbaa !150
  call void @addReplyErrorArity(ptr noundef %28)
  store i32 1, ptr %12, align 4
  br label %142

29:                                               ; preds = %2
  %30 = load ptr, ptr %3, align 8, !tbaa !150
  %31 = getelementptr inbounds nuw %struct.client, ptr %30, i32 0, i32 15
  %32 = load i32, ptr %31, align 8, !tbaa !160
  %33 = icmp sgt i32 %32, 3
  br i1 %33, label %34, label %49

34:                                               ; preds = %29
  %35 = load ptr, ptr %3, align 8, !tbaa !150
  %36 = getelementptr inbounds nuw %struct.client, ptr %35, i32 0, i32 16
  %37 = load ptr, ptr %36, align 8, !tbaa !151
  %38 = getelementptr inbounds ptr, ptr %37, i64 3
  %39 = load ptr, ptr %38, align 8, !tbaa !78
  %40 = getelementptr inbounds nuw %struct.redisObject, ptr %39, i32 0, i32 2
  %41 = load ptr, ptr %40, align 8, !tbaa !84
  %42 = call i32 @strcasecmp(ptr noundef %41, ptr noundef @.str.64) #15
  %43 = icmp ne i32 %42, 0
  br i1 %43, label %45, label %44

44:                                               ; preds = %34
  store i32 1, ptr %10, align 4, !tbaa !5
  br label %48

45:                                               ; preds = %34
  %46 = load ptr, ptr %3, align 8, !tbaa !150
  %47 = load ptr, ptr getelementptr inbounds nuw (%struct.sharedObjectsStruct, ptr @shared, i32 0, i32 15), align 8, !tbaa !162
  call void @addReplyErrorObject(ptr noundef %46, ptr noundef %47)
  store i32 1, ptr %12, align 4
  br label %142

48:                                               ; preds = %44
  br label %49

49:                                               ; preds = %48, %29
  %50 = load i32, ptr %10, align 4, !tbaa !5
  %51 = icmp ne i32 %50, 0
  br i1 %51, label %52, label %59

52:                                               ; preds = %49
  %53 = load ptr, ptr %3, align 8, !tbaa !150
  %54 = getelementptr inbounds nuw %struct.client, ptr %53, i32 0, i32 7
  %55 = load i32, ptr %54, align 4, !tbaa !205
  %56 = sext i32 %55 to i64
  %57 = getelementptr inbounds [4 x ptr], ptr getelementptr inbounds nuw (%struct.sharedObjectsStruct, ptr @shared, i32 0, i32 9), i64 0, i64 %56
  %58 = load ptr, ptr %57, align 8, !tbaa !78
  br label %66

59:                                               ; preds = %49
  %60 = load ptr, ptr %3, align 8, !tbaa !150
  %61 = getelementptr inbounds nuw %struct.client, ptr %60, i32 0, i32 7
  %62 = load i32, ptr %61, align 4, !tbaa !205
  %63 = sext i32 %62 to i64
  %64 = getelementptr inbounds [4 x ptr], ptr getelementptr inbounds nuw (%struct.sharedObjectsStruct, ptr @shared, i32 0, i32 8), i64 0, i64 %63
  %65 = load ptr, ptr %64, align 8, !tbaa !78
  br label %66

66:                                               ; preds = %59, %52
  %67 = phi ptr [ %58, %52 ], [ %65, %59 ]
  store ptr %67, ptr %8, align 8, !tbaa !78
  %68 = load ptr, ptr %3, align 8, !tbaa !150
  %69 = load ptr, ptr %5, align 8, !tbaa !78
  %70 = load ptr, ptr %8, align 8, !tbaa !78
  %71 = call ptr @lookupKeyReadOrReply(ptr noundef %68, ptr noundef %69, ptr noundef %70)
  store ptr %71, ptr %7, align 8, !tbaa !78
  %72 = icmp eq ptr %71, null
  br i1 %72, label %78, label %73

73:                                               ; preds = %66
  %74 = load ptr, ptr %3, align 8, !tbaa !150
  %75 = load ptr, ptr %7, align 8, !tbaa !78
  %76 = call i32 @checkType(ptr noundef %74, ptr noundef %75, i32 noundef 3)
  %77 = icmp ne i32 %76, 0
  br i1 %77, label %78, label %79

78:                                               ; preds = %73, %66
  store i32 1, ptr %12, align 4
  br label %142

79:                                               ; preds = %73
  %80 = load ptr, ptr %6, align 8, !tbaa !78
  %81 = load i32, ptr %80, align 8
  %82 = lshr i32 %81, 4
  %83 = and i32 %82, 15
  %84 = icmp eq i32 %83, 0
  br i1 %84, label %91, label %85

85:                                               ; preds = %79
  %86 = load ptr, ptr %6, align 8, !tbaa !78
  %87 = load i32, ptr %86, align 8
  %88 = lshr i32 %87, 4
  %89 = and i32 %88, 15
  %90 = icmp eq i32 %89, 8
  br label %91

91:                                               ; preds = %85, %79
  %92 = phi i1 [ true, %79 ], [ %90, %85 ]
  %93 = xor i1 %92, true
  %94 = xor i1 %93, true
  %95 = zext i1 %94 to i32
  %96 = sext i32 %95 to i64
  %97 = call i64 @llvm.expect.i64(i64 %96, i64 1)
  %98 = icmp ne i64 %97, 0
  br i1 %98, label %99, label %100

99:                                               ; preds = %91
  br label %104

100:                                              ; preds = %91
  %101 = load ptr, ptr %3, align 8, !tbaa !150
  %102 = load ptr, ptr %6, align 8, !tbaa !78
  call void @_serverAssertWithInfo(ptr noundef %101, ptr noundef %102, ptr noundef @.str.65, ptr noundef @.str.1, i32 noundef 3865)
  call void @abort() #14
  unreachable

103:                                              ; No predecessors!
  br label %104

104:                                              ; preds = %103, %99
  %105 = load ptr, ptr %7, align 8, !tbaa !78
  %106 = load ptr, ptr %6, align 8, !tbaa !78
  %107 = getelementptr inbounds nuw %struct.redisObject, ptr %106, i32 0, i32 2
  %108 = load ptr, ptr %107, align 8, !tbaa !84
  %109 = load i32, ptr %4, align 4, !tbaa !5
  %110 = load i32, ptr %10, align 4, !tbaa !5
  %111 = icmp ne i32 %110, 0
  br i1 %111, label %112, label %113

112:                                              ; preds = %104
  br label %114

113:                                              ; preds = %104
  br label %114

114:                                              ; preds = %113, %112
  %115 = phi ptr [ %11, %112 ], [ null, %113 ]
  %116 = call i64 @zsetRank(ptr noundef %105, ptr noundef %108, i32 noundef %109, ptr noundef %115)
  store i64 %116, ptr %9, align 8, !tbaa !31
  %117 = load i64, ptr %9, align 8, !tbaa !31
  %118 = icmp sge i64 %117, 0
  br i1 %118, label %119, label %133

119:                                              ; preds = %114
  %120 = load i32, ptr %10, align 4, !tbaa !5
  %121 = icmp ne i32 %120, 0
  br i1 %121, label %122, label %124

122:                                              ; preds = %119
  %123 = load ptr, ptr %3, align 8, !tbaa !150
  call void @addReplyArrayLen(ptr noundef %123, i64 noundef 2)
  br label %124

124:                                              ; preds = %122, %119
  %125 = load ptr, ptr %3, align 8, !tbaa !150
  %126 = load i64, ptr %9, align 8, !tbaa !31
  call void @addReplyLongLong(ptr noundef %125, i64 noundef %126)
  %127 = load i32, ptr %10, align 4, !tbaa !5
  %128 = icmp ne i32 %127, 0
  br i1 %128, label %129, label %132

129:                                              ; preds = %124
  %130 = load ptr, ptr %3, align 8, !tbaa !150
  %131 = load double, ptr %11, align 8, !tbaa !9
  call void @addReplyDouble(ptr noundef %130, double noundef %131)
  br label %132

132:                                              ; preds = %129, %124
  br label %141

133:                                              ; preds = %114
  %134 = load i32, ptr %10, align 4, !tbaa !5
  %135 = icmp ne i32 %134, 0
  br i1 %135, label %136, label %138

136:                                              ; preds = %133
  %137 = load ptr, ptr %3, align 8, !tbaa !150
  call void @addReplyNullArray(ptr noundef %137)
  br label %140

138:                                              ; preds = %133
  %139 = load ptr, ptr %3, align 8, !tbaa !150
  call void @addReplyNull(ptr noundef %139)
  br label %140

140:                                              ; preds = %138, %136
  br label %141

141:                                              ; preds = %140, %132
  store i32 0, ptr %12, align 4
  br label %142

142:                                              ; preds = %141, %78, %45, %27
  call void @llvm.lifetime.end.p0(i64 8, ptr %11) #12
  call void @llvm.lifetime.end.p0(i64 4, ptr %10) #12
  call void @llvm.lifetime.end.p0(i64 8, ptr %9) #12
  call void @llvm.lifetime.end.p0(i64 8, ptr %8) #12
  call void @llvm.lifetime.end.p0(i64 8, ptr %7) #12
  call void @llvm.lifetime.end.p0(i64 8, ptr %6) #12
  call void @llvm.lifetime.end.p0(i64 8, ptr %5) #12
  %143 = load i32, ptr %12, align 4
  switch i32 %143, label %145 [
    i32 0, label %144
    i32 1, label %144
  ]

144:                                              ; preds = %142, %142
  ret void

145:                                              ; preds = %142
  unreachable
}