; Function Attrs: nounwind uwtable
define dso_local void @zrankGenericCommand(ptr noundef %0, i32 noundef %1) local_unnamed_addr #0 {
  %3 = alloca double, align 8
  %4 = getelementptr inbounds nuw i8, ptr %0, i64 96
  %5 = load ptr, ptr %4, align 8, !tbaa !136
  %6 = getelementptr inbounds nuw i8, ptr %5, i64 8
  %7 = load ptr, ptr %6, align 8, !tbaa !146
  %8 = getelementptr inbounds nuw i8, ptr %5, i64 16
  %9 = load ptr, ptr %8, align 8, !tbaa !146
  call void @llvm.lifetime.start.p0(i64 8, ptr nonnull %3) #18
  %10 = getelementptr inbounds nuw i8, ptr %0, i64 88
  %11 = load i32, ptr %10, align 8, !tbaa !147
  %12 = icmp sgt i32 %11, 4
  br i1 %12, label %13, label %14

13:                                               ; preds = %2
  tail call void @addReplyErrorArity(ptr noundef nonnull %0) #18
  br label %48

14:                                               ; preds = %2
  %.not37 = icmp eq i32 %11, 4
  br i1 %.not37, label %15, label %.critedge

15:                                               ; preds = %14
  %16 = getelementptr inbounds nuw i8, ptr %5, i64 24
  %17 = load ptr, ptr %16, align 8, !tbaa !146
  %18 = getelementptr inbounds nuw i8, ptr %17, i64 8
  %19 = load ptr, ptr %18, align 8, !tbaa !75
  %20 = tail call i32 @strcasecmp(ptr noundef %19, ptr noundef nonnull @.str.64) #20
  %.not = icmp eq i32 %20, 0
  br i1 %.not, label %.critedge, label %21

21:                                               ; preds = %15
  %22 = load ptr, ptr getelementptr inbounds nuw (i8, ptr @shared, i64 216), align 8, !tbaa !148
  tail call void @addReplyErrorObject(ptr noundef nonnull %0, ptr noundef %22) #18
  br label %48

.critedge:                                        ; preds = %14, %15
  %.sink = phi ptr [ getelementptr inbounds nuw (i8, ptr @shared, i64 96), %15 ], [ getelementptr inbounds nuw (i8, ptr @shared, i64 64), %14 ]
  %23 = getelementptr inbounds nuw i8, ptr %0, i64 28
  %24 = load i32, ptr %23, align 4, !tbaa !185
  %25 = sext i32 %24 to i64
  %26 = getelementptr inbounds [4 x ptr], ptr %.sink, i64 0, i64 %25
  %27 = load ptr, ptr %26, align 8, !tbaa !146
  %28 = tail call ptr @lookupKeyReadOrReply(ptr noundef nonnull %0, ptr noundef %7, ptr noundef %27) #18
  %29 = icmp eq ptr %28, null
  br i1 %29, label %48, label %30

30:                                               ; preds = %.critedge
  %31 = tail call i32 @checkType(ptr noundef nonnull %0, ptr noundef nonnull %28, i32 noundef 3) #18
  %.not38 = icmp eq i32 %31, 0
  br i1 %.not38, label %32, label %48

32:                                               ; preds = %30
  %33 = load i32, ptr %9, align 8
  %34 = lshr i32 %33, 4
  %35 = and i32 %34, 15
  switch i32 %35, label %36 [
    i32 8, label %37
    i32 0, label %37
  ]

36:                                               ; preds = %32
  tail call void @_serverAssertWithInfo(ptr noundef nonnull %0, ptr noundef nonnull %9, ptr noundef nonnull @.str.65, ptr noundef nonnull @.str.1, i32 noundef 3865) #18
  tail call void @abort() #19
  unreachable

37:                                               ; preds = %32, %32
  %38 = getelementptr inbounds nuw i8, ptr %9, i64 8
  %39 = load ptr, ptr %38, align 8, !tbaa !75
  %. = select i1 %.not37, ptr %3, ptr null
  %40 = call i64 @zsetRank(ptr noundef nonnull %28, ptr noundef %39, i32 noundef %1, ptr noundef %.)
  %41 = icmp sgt i64 %40, -1
  br i1 %41, label %42, label %45

42:                                               ; preds = %37
  br i1 %.not37, label %43, label %.critedge40

43:                                               ; preds = %42
  call void @addReplyArrayLen(ptr noundef nonnull %0, i64 noundef 2) #18
  call void @addReplyLongLong(ptr noundef nonnull %0, i64 noundef %40) #18
  %44 = load double, ptr %3, align 8, !tbaa !5
  call void @addReplyDouble(ptr noundef nonnull %0, double noundef %44) #18
  br label %48

45:                                               ; preds = %37
  br i1 %.not37, label %46, label %47

46:                                               ; preds = %45
  call void @addReplyNullArray(ptr noundef nonnull %0) #18
  br label %48

47:                                               ; preds = %45
  call void @addReplyNull(ptr noundef nonnull %0) #18
  br label %48

.critedge40:                                      ; preds = %42
  call void @addReplyLongLong(ptr noundef nonnull %0, i64 noundef %40) #18
  br label %48

48:                                               ; preds = %43, %47, %46, %.critedge40, %.critedge, %30, %21, %13
  call void @llvm.lifetime.end.p0(i64 8, ptr nonnull %3) #18
  ret void
}